target datalayout = "e-m:e-p270:32:32-p271:32:32-p272:64:64-i64:64-i128:128-f80:128-n8:16:32:64-S128"
target triple = "x86_64-unknown-linux-gnu"

%"class.icu_75::ReorderingBuffer" = type { ptr, ptr, ptr, ptr, ptr, i32, i8, ptr, ptr }
%"class.icu_75::UnicodeString" = type { %"class.icu_75::Replaceable", %"union.icu_75::UnicodeString::StackBufferOrFields" }
%"class.icu_75::Replaceable" = type { %"class.icu_75::UObject" }
%"class.icu_75::UObject" = type { ptr }
%"union.icu_75::UnicodeString::StackBufferOrFields" = type { %struct.anon.0, [32 x i8] }
%struct.anon.0 = type { i16, i32, i32, ptr }

; Function Attrs: mustprogress nounwind uwtable
define linkonce_odr noundef i32 @_ZNK6icu_7513UnicodeString14getShortLengthEv(ptr noundef nonnull align 8 dereferenceable(64) %this) #2 comdat align 2 {
entry:
  %this.addr = alloca ptr, align 8
  store ptr %this, ptr %this.addr, align 8
  %this1 = load ptr, ptr %this.addr, align 8
  %fUnion = getelementptr inbounds %"class.icu_75::UnicodeString", ptr %this1, i32 0, i32 1
  %fLengthAndFlags = getelementptr inbounds %struct.anon.0, ptr %fUnion, i32 0, i32 0
  %0 = load i16, ptr %fLengthAndFlags, align 8
  %conv = sext i16 %0 to i32
  %shr = ashr i32 %conv, 5
  ret i32 %shr
}

; Function Attrs: mustprogress nounwind uwtable
define linkonce_odr noundef signext i8 @_ZNK6icu_7513UnicodeString14hasShortLengthEv(ptr noundef nonnull align 8 dereferenceable(64) %this) #2 comdat align 2 {
entry:
  %this.addr = alloca ptr, align 8
  store ptr %this, ptr %this.addr, align 8
  %this1 = load ptr, ptr %this.addr, align 8
  %fUnion = getelementptr inbounds %"class.icu_75::UnicodeString", ptr %this1, i32 0, i32 1
  %fLengthAndFlags = getelementptr inbounds %struct.anon.0, ptr %fUnion, i32 0, i32 0
  %0 = load i16, ptr %fLengthAndFlags, align 8
  %conv = sext i16 %0 to i32
  %cmp = icmp sge i32 %conv, 0
  %conv2 = zext i1 %cmp to i8
  ret i8 %conv2
}

; Function Attrs: mustprogress nounwind uwtable
define linkonce_odr void @_ZN6icu_7516ReorderingBuffer11setIteratorEv(ptr noundef nonnull align 8 dereferenceable(64) %this) #2 comdat align 2 {
entry:
  %this.addr = alloca ptr, align 8
  store ptr %this, ptr %this.addr, align 8
  %this1 = load ptr, ptr %this.addr, align 8
  %limit = getelementptr inbounds %"class.icu_75::ReorderingBuffer", ptr %this1, i32 0, i32 4
  %0 = load ptr, ptr %limit, align 8
  %codePointStart = getelementptr inbounds %"class.icu_75::ReorderingBuffer", ptr %this1, i32 0, i32 7
  store ptr %0, ptr %codePointStart, align 8
  ret void
}

; Function Attrs: mustprogress nounwind uwtable
define linkonce_odr noundef i32 @_ZNK6icu_7513UnicodeString11getCapacityEv(ptr noundef nonnull align 8 dereferenceable(64) %this) #2 comdat align 2 {
entry:
  %this.addr = alloca ptr, align 8
  store ptr %this, ptr %this.addr, align 8
  %this1 = load ptr, ptr %this.addr, align 8
  %fUnion = getelementptr inbounds %"class.icu_75::UnicodeString", ptr %this1, i32 0, i32 1
  %fLengthAndFlags = getelementptr inbounds %struct.anon.0, ptr %fUnion, i32 0, i32 0
  %0 = load i16, ptr %fLengthAndFlags, align 8
  %conv = sext i16 %0 to i32
  %and = and i32 %conv, 2
  %tobool = icmp ne i32 %and, 0
  br i1 %tobool, label %cond.true, label %cond.false

cond.true:                                        ; preds = %entry
  br label %cond.end

cond.false:                                       ; preds = %entry
  %fUnion2 = getelementptr inbounds %"class.icu_75::UnicodeString", ptr %this1, i32 0, i32 1
  %fCapacity = getelementptr inbounds %struct.anon.0, ptr %fUnion2, i32 0, i32 2
  %1 = load i32, ptr %fCapacity, align 8
  br label %cond.end

cond.end:                                         ; preds = %cond.false, %cond.true
  %cond = phi i32 [ 27, %cond.true ], [ %1, %cond.false ]
  ret i32 %cond
}

; Function Attrs: mustprogress uwtable
define linkonce_odr noundef i32 @_ZNK6icu_7513UnicodeString6lengthEv(ptr noundef nonnull align 8 dereferenceable(64) %this) #0 comdat align 2 {
entry:
  %this.addr = alloca ptr, align 8
  store ptr %this, ptr %this.addr, align 8
  %this1 = load ptr, ptr %this.addr, align 8
  %call = call noundef signext i8 @_ZNK6icu_7513UnicodeString14hasShortLengthEv(ptr noundef nonnull align 8 dereferenceable(64) %this1)
  %tobool = icmp ne i8 %call, 0
  br i1 %tobool, label %cond.true, label %cond.false

cond.true:                                        ; preds = %entry
  %call2 = call noundef i32 @_ZNK6icu_7513UnicodeString14getShortLengthEv(ptr noundef nonnull align 8 dereferenceable(64) %this1)
  br label %cond.end

cond.false:                                       ; preds = %entry
  %fUnion = getelementptr inbounds %"class.icu_75::UnicodeString", ptr %this1, i32 0, i32 1
  %fLength = getelementptr inbounds %struct.anon.0, ptr %fUnion, i32 0, i32 1
  %0 = load i32, ptr %fLength, align 4
  br label %cond.end

cond.end:                                         ; preds = %cond.false, %cond.true
  %cond = phi i32 [ %call2, %cond.true ], [ %0, %cond.false ]
  ret i32 %cond
}

; Function Attrs: mustprogress uwtable
define noundef signext i8 @_ZN6icu_7516ReorderingBuffer4initEiR10UErrorCode(ptr noundef nonnull align 8 dereferenceable(64) %this, i32 noundef %destCapacity, ptr noundef nonnull align 4 dereferenceable(4) %errorCode) #0 align 2 {
entry:
  %retval = alloca i8, align 1
  %this.addr = alloca ptr, align 8
  %destCapacity.addr = alloca i32, align 4
  %errorCode.addr = alloca ptr, align 8
  %length = alloca i32, align 4
  store ptr %this, ptr %this.addr, align 8
  store i32 %destCapacity, ptr %destCapacity.addr, align 4
  store ptr %errorCode, ptr %errorCode.addr, align 8
  %this1 = load ptr, ptr %this.addr, align 8
  %str = getelementptr inbounds %"class.icu_75::ReorderingBuffer", ptr %this1, i32 0, i32 1
  %0 = load ptr, ptr %str, align 8
  %call = call noundef i32 @_ZNK6icu_7513UnicodeString6lengthEv(ptr noundef nonnull align 8 dereferenceable(64) %0)
  store i32 %call, ptr %length, align 4
  %str2 = getelementptr inbounds %"class.icu_75::ReorderingBuffer", ptr %this1, i32 0, i32 1
  %1 = load ptr, ptr %str2, align 8
  %2 = load i32, ptr %destCapacity.addr, align 4
  %call3 = call noundef ptr @_ZN6icu_7513UnicodeString9getBufferEi(ptr noundef nonnull align 8 dereferenceable(64) %1, i32 noundef %2)
  %start = getelementptr inbounds %"class.icu_75::ReorderingBuffer", ptr %this1, i32 0, i32 2
  store ptr %call3, ptr %start, align 8
  %start4 = getelementptr inbounds %"class.icu_75::ReorderingBuffer", ptr %this1, i32 0, i32 2
  %3 = load ptr, ptr %start4, align 8
  %cmp = icmp eq ptr %3, null
  br i1 %cmp, label %if.then, label %if.end

if.then:                                          ; preds = %entry
  %4 = load ptr, ptr %errorCode.addr, align 8
  store i32 7, ptr %4, align 4
  store i8 0, ptr %retval, align 1
  br label %return

if.end:                                           ; preds = %entry
  %start5 = getelementptr inbounds %"class.icu_75::ReorderingBuffer", ptr %this1, i32 0, i32 2
  %5 = load ptr, ptr %start5, align 8
  %6 = load i32, ptr %length, align 4
  %idx.ext = sext i32 %6 to i64
  %add.ptr = getelementptr inbounds i16, ptr %5, i64 %idx.ext
  %limit = getelementptr inbounds %"class.icu_75::ReorderingBuffer", ptr %this1, i32 0, i32 4
  store ptr %add.ptr, ptr %limit, align 8
  %str6 = getelementptr inbounds %"class.icu_75::ReorderingBuffer", ptr %this1, i32 0, i32 1
  %7 = load ptr, ptr %str6, align 8
  %call7 = call noundef i32 @_ZNK6icu_7513UnicodeString11getCapacityEv(ptr noundef nonnull align 8 dereferenceable(64) %7)
  %8 = load i32, ptr %length, align 4
  %sub = sub nsw i32 %call7, %8
  %remainingCapacity = getelementptr inbounds %"class.icu_75::ReorderingBuffer", ptr %this1, i32 0, i32 5
  store i32 %sub, ptr %remainingCapacity, align 8
  %start8 = getelementptr inbounds %"class.icu_75::ReorderingBuffer", ptr %this1, i32 0, i32 2
  %9 = load ptr, ptr %start8, align 8
  %reorderStart = getelementptr inbounds %"class.icu_75::ReorderingBuffer", ptr %this1, i32 0, i32 3
  store ptr %9, ptr %reorderStart, align 8
  %start9 = getelementptr inbounds %"class.icu_75::ReorderingBuffer", ptr %this1, i32 0, i32 2
  %10 = load ptr, ptr %start9, align 8
  %limit10 = getelementptr inbounds %"class.icu_75::ReorderingBuffer", ptr %this1, i32 0, i32 4
  %11 = load ptr, ptr %limit10, align 8
  %cmp11 = icmp eq ptr %10, %11
  br i1 %cmp11, label %if.then12, label %if.else

if.then12:                                        ; preds = %if.end
  %lastCC = getelementptr inbounds %"class.icu_75::ReorderingBuffer", ptr %this1, i32 0, i32 6
  store i8 0, ptr %lastCC, align 4
  br label %if.end23

if.else:                                          ; preds = %if.end
  call void @_ZN6icu_7516ReorderingBuffer11setIteratorEv(ptr noundef nonnull align 8 dereferenceable(64) %this1)
  %call13 = call noundef zeroext i8 @_ZN6icu_7516ReorderingBuffer10previousCCEv(ptr noundef nonnull align 8 dereferenceable(64) %this1)
  %lastCC14 = getelementptr inbounds %"class.icu_75::ReorderingBuffer", ptr %this1, i32 0, i32 6
  store i8 %call13, ptr %lastCC14, align 4
  %lastCC15 = getelementptr inbounds %"class.icu_75::ReorderingBuffer", ptr %this1, i32 0, i32 6
  %12 = load i8, ptr %lastCC15, align 4
  %conv = zext i8 %12 to i32
  %cmp16 = icmp sgt i32 %conv, 1
  br i1 %cmp16, label %if.then17, label %if.end21

if.then17:                                        ; preds = %if.else
  br label %while.cond

while.cond:                                       ; preds = %while.body, %if.then17
  %call18 = call noundef zeroext i8 @_ZN6icu_7516ReorderingBuffer10previousCCEv(ptr noundef nonnull align 8 dereferenceable(64) %this1)
  %conv19 = zext i8 %call18 to i32
  %cmp20 = icmp sgt i32 %conv19, 1
  br i1 %cmp20, label %while.body, label %while.end

while.body:                                       ; preds = %while.cond
  br label %while.cond, !llvm.loop !4

while.end:                                        ; preds = %while.cond
  br label %if.end21

if.end21:                                         ; preds = %while.end, %if.else
  %codePointLimit = getelementptr inbounds %"class.icu_75::ReorderingBuffer", ptr %this1, i32 0, i32 8
  %13 = load ptr, ptr %codePointLimit, align 8
  %reorderStart22 = getelementptr inbounds %"class.icu_75::ReorderingBuffer", ptr %this1, i32 0, i32 3
  store ptr %13, ptr %reorderStart22, align 8
  br label %if.end23

if.end23:                                         ; preds = %if.end21, %if.then12
  store i8 1, ptr %retval, align 1
  br label %return

return:                                           ; preds = %if.end23, %if.then
  %14 = load i8, ptr %retval, align 1
  ret i8 %14
}