; Function Attrs: mustprogress uwtable
define noundef signext i8 @_ZN6icu_7516ReorderingBuffer4initEiR10UErrorCode(ptr nocapture noundef nonnull align 8 dereferenceable(64) %this, i32 noundef %destCapacity, ptr nocapture noundef nonnull writeonly align 4 dereferenceable(4) %errorCode) local_unnamed_addr #0 align 2 {
entry:
  %str = getelementptr inbounds i8, ptr %this, i64 8
  %0 = load ptr, ptr %str, align 8
  %fUnion.i.i = getelementptr inbounds i8, ptr %0, i64 8
  %1 = load i16, ptr %fUnion.i.i, align 8
  %fLength.i = getelementptr inbounds i8, ptr %0, i64 12
  %2 = load i32, ptr %fLength.i, align 4
  %call3 = tail call noundef ptr @_ZN6icu_7513UnicodeString9getBufferEi(ptr noundef nonnull align 8 dereferenceable(64) %0, i32 noundef %destCapacity)
  %start = getelementptr inbounds i8, ptr %this, i64 16
  store ptr %call3, ptr %start, align 8
  %cmp = icmp eq ptr %call3, null
  br i1 %cmp, label %if.then, label %if.end

if.then:                                          ; preds = %entry
  store i32 7, ptr %errorCode, align 4
  br label %return

if.end:                                           ; preds = %entry
  %cmp.i.i = icmp slt i16 %1, 0
  %3 = ashr i16 %1, 5
  %shr.i.i = sext i16 %3 to i32
  %cond.i = select i1 %cmp.i.i, i32 %2, i32 %shr.i.i
  %idx.ext = sext i32 %cond.i to i64
  %add.ptr = getelementptr inbounds i16, ptr %call3, i64 %idx.ext
  %limit = getelementptr inbounds i8, ptr %this, i64 32
  store ptr %add.ptr, ptr %limit, align 8
  %4 = load ptr, ptr %str, align 8
  %fUnion.i = getelementptr inbounds i8, ptr %4, i64 8
  %5 = load i16, ptr %fUnion.i, align 8
  %6 = and i16 %5, 2
  %tobool.not.i = icmp eq i16 %6, 0
  %fCapacity.i = getelementptr inbounds i8, ptr %4, i64 16
  %7 = load i32, ptr %fCapacity.i, align 8
  %cond.i2 = select i1 %tobool.not.i, i32 %7, i32 27
  %sub = sub nsw i32 %cond.i2, %cond.i
  %remainingCapacity = getelementptr inbounds i8, ptr %this, i64 40
  store i32 %sub, ptr %remainingCapacity, align 8
  %reorderStart = getelementptr inbounds i8, ptr %this, i64 24
  store ptr %call3, ptr %reorderStart, align 8
  %cmp11 = icmp eq i32 %cond.i, 0
  br i1 %cmp11, label %if.then12, label %if.else

if.then12:                                        ; preds = %if.end
  %lastCC = getelementptr inbounds i8, ptr %this, i64 44
  store i8 0, ptr %lastCC, align 4
  br label %return

if.else:                                          ; preds = %if.end
  %codePointStart.i = getelementptr inbounds i8, ptr %this, i64 48
  store ptr %add.ptr, ptr %codePointStart.i, align 8
  %call13 = tail call noundef zeroext i8 @_ZN6icu_7516ReorderingBuffer10previousCCEv(ptr noundef nonnull align 8 dereferenceable(64) %this)
  %lastCC14 = getelementptr inbounds i8, ptr %this, i64 44
  store i8 %call13, ptr %lastCC14, align 4
  %cmp16 = icmp ugt i8 %call13, 1
  br i1 %cmp16, label %while.cond, label %if.end21

while.cond:                                       ; preds = %if.else, %while.cond
  %call18 = tail call noundef zeroext i8 @_ZN6icu_7516ReorderingBuffer10previousCCEv(ptr noundef nonnull align 8 dereferenceable(64) %this)
  %cmp20 = icmp ugt i8 %call18, 1
  br i1 %cmp20, label %while.cond, label %if.end21, !llvm.loop !4

if.end21:                                         ; preds = %while.cond, %if.else
  %codePointLimit = getelementptr inbounds i8, ptr %this, i64 56
  %8 = load ptr, ptr %codePointLimit, align 8
  store ptr %8, ptr %reorderStart, align 8
  br label %return

return:                                           ; preds = %if.then12, %if.end21, %if.then
  %retval.0 = phi i8 [ 0, %if.then ], [ 1, %if.end21 ], [ 1, %if.then12 ]
  ret i8 %retval.0
}